; ModuleID = '55/1079.cpp'
source_filename = "55/1079.cpp"
target datalayout = "e-m:e-p270:32:32-p271:32:32-p272:64:64-i64:64-f80:128-n8:16:32:64-S128"
target triple = "x86_64-pc-linux-gnu"

%"class.std::ios_base::Init" = type { i8 }
%"class.std::basic_istream" = type { i32 (...)**, i64, %"class.std::basic_ios" }
%"class.std::basic_ios" = type { %"class.std::ios_base", %"class.std::basic_ostream"*, i8, i8, %"class.std::basic_streambuf"*, %"class.std::ctype"*, %"class.std::num_put"*, %"class.std::num_get"* }
%"class.std::ios_base" = type { i32 (...)**, i64, i64, i32, i32, i32, %"struct.std::ios_base::_Callback_list"*, %"struct.std::ios_base::_Words", [8 x %"struct.std::ios_base::_Words"], i32, %"struct.std::ios_base::_Words"*, %"class.std::locale" }
%"struct.std::ios_base::_Callback_list" = type { %"struct.std::ios_base::_Callback_list"*, void (i32, %"class.std::ios_base"*, i32)*, i32, i32 }
%"struct.std::ios_base::_Words" = type { i8*, i64 }
%"class.std::locale" = type { %"class.std::locale::_Impl"* }
%"class.std::locale::_Impl" = type { i32, %"class.std::locale::facet"**, i64, %"class.std::locale::facet"**, i8** }
%"class.std::locale::facet" = type <{ i32 (...)**, i32, [4 x i8] }>
%"class.std::basic_ostream" = type { i32 (...)**, %"class.std::basic_ios" }
%"class.std::basic_streambuf" = type { i32 (...)**, i8*, i8*, i8*, i8*, i8*, i8*, %"class.std::locale" }
%"class.std::ctype" = type <{ %"class.std::locale::facet.base", [4 x i8], %struct.__locale_struct*, i8, [7 x i8], i32*, i32*, i16*, i8, [256 x i8], [256 x i8], i8, [6 x i8] }>
%"class.std::locale::facet.base" = type <{ i32 (...)**, i32 }>
%struct.__locale_struct = type { [13 x %struct.__locale_data*], i16*, i32*, i32*, [13 x i8*] }
%struct.__locale_data = type opaque
%"class.std::num_put" = type { %"class.std::locale::facet.base", [4 x i8] }
%"class.std::num_get" = type { %"class.std::locale::facet.base", [4 x i8] }

@_ZStL8__ioinit = internal global %"class.std::ios_base::Init" zeroinitializer, align 1
@__dso_handle = external hidden global i8
@_ZSt3cin = external dso_local global %"class.std::basic_istream", align 8
@_ZSt4cout = external dso_local global %"class.std::basic_ostream", align 8
@llvm.global_ctors = appending global [1 x { i32, void ()*, i8* }] [{ i32, void ()*, i8* } { i32 65535, void ()* @_GLOBAL__sub_I_1079.cpp, i8* null }]

; Function Attrs: noinline uwtable
define internal void @__cxx_global_var_init() #0 section ".text.startup" {
  call void @_ZNSt8ios_base4InitC1Ev(%"class.std::ios_base::Init"* @_ZStL8__ioinit)
  %1 = call i32 @__cxa_atexit(void (i8*)* bitcast (void (%"class.std::ios_base::Init"*)* @_ZNSt8ios_base4InitD1Ev to void (i8*)*), i8* getelementptr inbounds (%"class.std::ios_base::Init", %"class.std::ios_base::Init"* @_ZStL8__ioinit, i32 0, i32 0), i8* @__dso_handle) #3
  ret void
}

declare dso_local void @_ZNSt8ios_base4InitC1Ev(%"class.std::ios_base::Init"*) unnamed_addr #1

; Function Attrs: nounwind
declare dso_local void @_ZNSt8ios_base4InitD1Ev(%"class.std::ios_base::Init"*) unnamed_addr #2

; Function Attrs: nounwind
declare dso_local i32 @__cxa_atexit(void (i8*)*, i8*, i8*) #3

; Function Attrs: noinline norecurse uwtable
define dso_local i32 @main() #4 {
  %1 = alloca i32, align 4
  %2 = alloca i32, align 4
  %3 = alloca i32, align 4
  %4 = alloca i32, align 4
  %5 = alloca i32, align 4
  %6 = alloca i32, align 4
  %7 = alloca i32, align 4
  %8 = alloca i32, align 4
  %9 = alloca i32, align 4
  %10 = alloca i32, align 4
  %11 = alloca i32, align 4
  %12 = alloca [100 x i8], align 16
  %13 = alloca [100 x i8], align 16
  %14 = alloca i32, align 4
  store i32 0, i32* %1, align 4
  store i32 0, i32* %7, align 4
  store i32 0, i32* %11, align 4
  %15 = call dereferenceable(280) %"class.std::basic_istream"* @_ZNSirsERi(%"class.std::basic_istream"* @_ZSt3cin, i32* dereferenceable(4) %2)
  %16 = getelementptr inbounds [100 x i8], [100 x i8]* %12, i64 0, i64 0
  %17 = call dereferenceable(280) %"class.std::basic_istream"* @_ZStrsIcSt11char_traitsIcEERSt13basic_istreamIT_T0_ES6_PS3_(%"class.std::basic_istream"* dereferenceable(280) %15, i8* %16)
  %18 = call dereferenceable(280) %"class.std::basic_istream"* @_ZNSirsERi(%"class.std::basic_istream"* %17, i32* dereferenceable(4) %3)
  %19 = getelementptr inbounds [100 x i8], [100 x i8]* %12, i64 0, i64 0
  %20 = call i64 @strlen(i8* %19) #6
  %21 = trunc i64 %20 to i32
  store i32 %21, i32* %5, align 4
  store i32 0, i32* %6, align 4
  br label %22

22:                                               ; preds = %105, %0
  %23 = load i32, i32* %6, align 4
  %24 = load i32, i32* %5, align 4
  %25 = icmp slt i32 %23, %24
  br i1 %25, label %26, label %108

26:                                               ; preds = %22
  store i32 1, i32* %14, align 4
  store i32 0, i32* %10, align 4
  br label %27

27:                                               ; preds = %38, %26
  %28 = load i32, i32* %10, align 4
  %29 = load i32, i32* %5, align 4
  %30 = sub nsw i32 %29, 1
  %31 = load i32, i32* %6, align 4
  %32 = sub nsw i32 %30, %31
  %33 = icmp slt i32 %28, %32
  br i1 %33, label %34, label %41

34:                                               ; preds = %27
  %35 = load i32, i32* %14, align 4
  %36 = load i32, i32* %2, align 4
  %37 = mul nsw i32 %35, %36
  store i32 %37, i32* %14, align 4
  br label %38

38:                                               ; preds = %34
  %39 = load i32, i32* %10, align 4
  %40 = add nsw i32 %39, 1
  store i32 %40, i32* %10, align 4
  br label %27

41:                                               ; preds = %27
  %42 = load i32, i32* %6, align 4
  %43 = sext i32 %42 to i64
  %44 = getelementptr inbounds [100 x i8], [100 x i8]* %12, i64 0, i64 %43
  %45 = load i8, i8* %44, align 1
  %46 = sext i8 %45 to i32
  %47 = icmp sle i32 %46, 57
  br i1 %47, label %48, label %59

48:                                               ; preds = %41
  %49 = load i32, i32* %11, align 4
  %50 = load i32, i32* %6, align 4
  %51 = sext i32 %50 to i64
  %52 = getelementptr inbounds [100 x i8], [100 x i8]* %12, i64 0, i64 %51
  %53 = load i8, i8* %52, align 1
  %54 = sext i8 %53 to i32
  %55 = sub nsw i32 %54, 48
  %56 = load i32, i32* %14, align 4
  %57 = mul nsw i32 %55, %56
  %58 = add nsw i32 %49, %57
  store i32 %58, i32* %11, align 4
  br label %59

59:                                               ; preds = %48, %41
  %60 = load i32, i32* %6, align 4
  %61 = sext i32 %60 to i64
  %62 = getelementptr inbounds [100 x i8], [100 x i8]* %12, i64 0, i64 %61
  %63 = load i8, i8* %62, align 1
  %64 = sext i8 %63 to i32
  %65 = icmp sge i32 %64, 65
  br i1 %65, label %66, label %85

66:                                               ; preds = %59
  %67 = load i32, i32* %6, align 4
  %68 = sext i32 %67 to i64
  %69 = getelementptr inbounds [100 x i8], [100 x i8]* %12, i64 0, i64 %68
  %70 = load i8, i8* %69, align 1
  %71 = sext i8 %70 to i32
  %72 = icmp slt i32 %71, 97
  br i1 %72, label %73, label %85

73:                                               ; preds = %66
  %74 = load i32, i32* %11, align 4
  %75 = load i32, i32* %6, align 4
  %76 = sext i32 %75 to i64
  %77 = getelementptr inbounds [100 x i8], [100 x i8]* %12, i64 0, i64 %76
  %78 = load i8, i8* %77, align 1
  %79 = sext i8 %78 to i32
  %80 = sub nsw i32 %79, 65
  %81 = add nsw i32 %80, 10
  %82 = load i32, i32* %14, align 4
  %83 = mul nsw i32 %81, %82
  %84 = add nsw i32 %74, %83
  store i32 %84, i32* %11, align 4
  br label %85

85:                                               ; preds = %73, %66, %59
  %86 = load i32, i32* %6, align 4
  %87 = sext i32 %86 to i64
  %88 = getelementptr inbounds [100 x i8], [100 x i8]* %12, i64 0, i64 %87
  %89 = load i8, i8* %88, align 1
  %90 = sext i8 %89 to i32
  %91 = icmp sge i32 %90, 97
  br i1 %91, label %92, label %104

92:                                               ; preds = %85
  %93 = load i32, i32* %11, align 4
  %94 = load i32, i32* %6, align 4
  %95 = sext i32 %94 to i64
  %96 = getelementptr inbounds [100 x i8], [100 x i8]* %12, i64 0, i64 %95
  %97 = load i8, i8* %96, align 1
  %98 = sext i8 %97 to i32
  %99 = sub nsw i32 %98, 97
  %100 = add nsw i32 %99, 10
  %101 = load i32, i32* %14, align 4
  %102 = mul nsw i32 %100, %101
  %103 = add nsw i32 %93, %102
  store i32 %103, i32* %11, align 4
  br label %104

104:                                              ; preds = %92, %85
  br label %105

105:                                              ; preds = %104
  %106 = load i32, i32* %6, align 4
  %107 = add nsw i32 %106, 1
  store i32 %107, i32* %6, align 4
  br label %22

108:                                              ; preds = %22
  %109 = load i32, i32* %11, align 4
  store i32 %109, i32* %4, align 4
  br label %110

110:                                              ; preds = %116, %108
  %111 = load i32, i32* %11, align 4
  %112 = load i32, i32* %3, align 4
  %113 = sdiv i32 %111, %112
  store i32 %113, i32* %11, align 4
  %114 = load i32, i32* %7, align 4
  %115 = add nsw i32 %114, 1
  store i32 %115, i32* %7, align 4
  br label %116

116:                                              ; preds = %110
  %117 = load i32, i32* %11, align 4
  %118 = icmp sgt i32 %117, 0
  br i1 %118, label %110, label %119

119:                                              ; preds = %116
  store i32 0, i32* %8, align 4
  br label %120

120:                                              ; preds = %162, %119
  %121 = load i32, i32* %8, align 4
  %122 = load i32, i32* %7, align 4
  %123 = icmp slt i32 %121, %122
  br i1 %123, label %124, label %165

124:                                              ; preds = %120
  %125 = load i32, i32* %4, align 4
  %126 = load i32, i32* %3, align 4
  %127 = srem i32 %125, %126
  %128 = icmp slt i32 %127, 10
  br i1 %128, label %129, label %141

129:                                              ; preds = %124
  %130 = load i32, i32* %4, align 4
  %131 = load i32, i32* %3, align 4
  %132 = srem i32 %130, %131
  %133 = add nsw i32 %132, 48
  %134 = trunc i32 %133 to i8
  %135 = load i32, i32* %7, align 4
  %136 = sub nsw i32 %135, 1
  %137 = load i32, i32* %8, align 4
  %138 = sub nsw i32 %136, %137
  %139 = sext i32 %138 to i64
  %140 = getelementptr inbounds [100 x i8], [100 x i8]* %13, i64 0, i64 %139
  store i8 %134, i8* %140, align 1
  br label %141

141:                                              ; preds = %129, %124
  %142 = load i32, i32* %4, align 4
  %143 = load i32, i32* %3, align 4
  %144 = srem i32 %142, %143
  %145 = icmp sge i32 %144, 10
  br i1 %145, label %146, label %158

146:                                              ; preds = %141
  %147 = load i32, i32* %4, align 4
  %148 = load i32, i32* %3, align 4
  %149 = srem i32 %147, %148
  %150 = add nsw i32 %149, 55
  %151 = trunc i32 %150 to i8
  %152 = load i32, i32* %7, align 4
  %153 = sub nsw i32 %152, 1
  %154 = load i32, i32* %8, align 4
  %155 = sub nsw i32 %153, %154
  %156 = sext i32 %155 to i64
  %157 = getelementptr inbounds [100 x i8], [100 x i8]* %13, i64 0, i64 %156
  store i8 %151, i8* %157, align 1
  br label %158

158:                                              ; preds = %146, %141
  %159 = load i32, i32* %4, align 4
  %160 = load i32, i32* %3, align 4
  %161 = sdiv i32 %159, %160
  store i32 %161, i32* %4, align 4
  br label %162

162:                                              ; preds = %158
  %163 = load i32, i32* %8, align 4
  %164 = add nsw i32 %163, 1
  store i32 %164, i32* %8, align 4
  br label %120

165:                                              ; preds = %120
  store i32 0, i32* %9, align 4
  br label %166

166:                                              ; preds = %176, %165
  %167 = load i32, i32* %9, align 4
  %168 = load i32, i32* %7, align 4
  %169 = icmp slt i32 %167, %168
  br i1 %169, label %170, label %179

170:                                              ; preds = %166
  %171 = load i32, i32* %9, align 4
  %172 = sext i32 %171 to i64
  %173 = getelementptr inbounds [100 x i8], [100 x i8]* %13, i64 0, i64 %172
  %174 = load i8, i8* %173, align 1
  %175 = call dereferenceable(272) %"class.std::basic_ostream"* @_ZStlsISt11char_traitsIcEERSt13basic_ostreamIcT_ES5_c(%"class.std::basic_ostream"* dereferenceable(272) @_ZSt4cout, i8 signext %174)
  br label %176

176:                                              ; preds = %170
  %177 = load i32, i32* %9, align 4
  %178 = add nsw i32 %177, 1
  store i32 %178, i32* %9, align 4
  br label %166

179:                                              ; preds = %166
  ret i32 0
}

declare dso_local dereferenceable(280) %"class.std::basic_istream"* @_ZStrsIcSt11char_traitsIcEERSt13basic_istreamIT_T0_ES6_PS3_(%"class.std::basic_istream"* dereferenceable(280), i8*) #1

declare dso_local dereferenceable(280) %"class.std::basic_istream"* @_ZNSirsERi(%"class.std::basic_istream"*, i32* dereferenceable(4)) #1

; Function Attrs: nounwind readonly
declare dso_local i64 @strlen(i8*) #5

declare dso_local dereferenceable(272) %"class.std::basic_ostream"* @_ZStlsISt11char_traitsIcEERSt13basic_ostreamIcT_ES5_c(%"class.std::basic_ostream"* dereferenceable(272), i8 signext) #1

; Function Attrs: noinline uwtable
define internal void @_GLOBAL__sub_I_1079.cpp() #0 section ".text.startup" {
  call void @__cxx_global_var_init()
  ret void
}


!llvm.module.flags = !{!0}
!llvm.ident = !{!1}

!0 = !{i32 1, !"wchar_size", i32 4}
!1 = !{!"clang version 10.0.0-4ubuntu1 "}
